; Listing generated by Microsoft (R) Optimizing Compiler Version 17.00.50727.1 

	TITLE	E:\dev\BasicOCR\zlib\gzlib.c
	.686P
	.XMM
	include listing.inc
	.model	flat

INCLUDELIB OLDNAMES

PUBLIC	??_C@_07EBNKNFJN@?$DMfd?3?$CFd?$DO?$AA@		; `string'
PUBLIC	??_C@_00CNPNBAHC@?$AA@				; `string'
PUBLIC	??_C@_0O@BNNCBLEN@out?5of?5memory?$AA@		; `string'
PUBLIC	??_C@_02LMMGGCAJ@?3?5?$AA@			; `string'
EXTRN	__imp__lseek:PROC
EXTRN	__imp__open:PROC
EXTRN	__imp__malloc:PROC
EXTRN	__imp__free:PROC
EXTRN	__imp__sprintf:PROC
;	COMDAT ??_C@_02LMMGGCAJ@?3?5?$AA@
CONST	SEGMENT
??_C@_02LMMGGCAJ@?3?5?$AA@ DB ': ', 00H			; `string'
CONST	ENDS
;	COMDAT ??_C@_0O@BNNCBLEN@out?5of?5memory?$AA@
CONST	SEGMENT
??_C@_0O@BNNCBLEN@out?5of?5memory?$AA@ DB 'out of memory', 00H ; `string'
CONST	ENDS
;	COMDAT ??_C@_00CNPNBAHC@?$AA@
CONST	SEGMENT
??_C@_00CNPNBAHC@?$AA@ DB 00H				; `string'
CONST	ENDS
;	COMDAT ??_C@_07EBNKNFJN@?$DMfd?3?$CFd?$DO?$AA@
CONST	SEGMENT
??_C@_07EBNKNFJN@?$DMfd?3?$CFd?$DO?$AA@ DB '<fd:%d>', 00H ; `string'
