; Listing generated by Microsoft (R) Optimizing Compiler Version 17.00.50727.1 

	TITLE	E:\dev\BasicOCR\zlib\gzread.c
	.686P
	.XMM
	include listing.inc
	.model	flat

INCLUDELIB OLDNAMES

PUBLIC	??_C@_0BL@IHKGDAEE@unknown?5compression?5method?$AA@ ; `string'
PUBLIC	??_C@_0BJ@BLBBCOMO@unknown?5header?5flags?5set?$AA@ ; `string'
PUBLIC	??_C@_0BH@CFIIDOJD@unexpected?5end?5of?5file?$AA@ ; `string'
PUBLIC	??_C@_0CH@CPOLIEKA@internal?5error?3?5inflate?5stream?5c@ ; `string'
PUBLIC	??_C@_0BG@HCKBMIHF@compressed?5data?5error?$AA@	; `string'
PUBLIC	??_C@_0BF@MEIGEHBE@incorrect?5data?5check?$AA@	; `string'
PUBLIC	??_C@_0BH@FGKKJGOC@incorrect?5length?5check?$AA@ ; `string'
PUBLIC	??_C@_0CF@MLPJFDMM@requested?5length?5does?5not?5fit?5in@ ; `string'
PUBLIC	??_C@_0BP@IIKIGMCC@out?5of?5room?5to?5push?5characters?$AA@ ; `string'
EXTRN	__imp___errno:PROC
EXTRN	__imp__memchr:PROC
EXTRN	__imp__strerror:PROC
EXTRN	__imp__close:PROC
EXTRN	__imp__read:PROC
;	COMDAT ??_C@_0BP@IIKIGMCC@out?5of?5room?5to?5push?5characters?$AA@
CONST	SEGMENT
??_C@_0BP@IIKIGMCC@out?5of?5room?5to?5push?5characters?$AA@ DB 'out of ro'
	DB	'om to push characters', 00H			; `string'
CONST	ENDS
;	COMDAT ??_C@_0CF@MLPJFDMM@requested?5length?5does?5not?5fit?5in@
CONST	SEGMENT
??_C@_0CF@MLPJFDMM@requested?5length?5does?5not?5fit?5in@ DB 'requested l'
	DB	'ength does not fit in int', 00H		; `string'
CONST	ENDS
;	COMDAT ??_C@_0BH@FGKKJGOC@incorrect?5length?5check?$AA@
CONST	SEGMENT
??_C@_0BH@FGKKJGOC@incorrect?5length?5check?$AA@ DB 'incorrect length che'
	DB	'ck', 00H					; `string'
CONST	ENDS
;	COMDAT ??_C@_0BF@MEIGEHBE@incorrect?5data?5check?$AA@
CONST	SEGMENT
??_C@_0BF@MEIGEHBE@incorrect?5data?5check?$AA@ DB 'incorrect data check', 00H ; `string'
CONST	ENDS
;	COMDAT ??_C@_0BG@HCKBMIHF@compressed?5data?5error?$AA@
CONST	SEGMENT
??_C@_0BG@HCKBMIHF@compressed?5data?5error?$AA@ DB 'compressed data error'
	DB	00H						; `string'
CONST	ENDS
;	COMDAT ??_C@_0CH@CPOLIEKA@internal?5error?3?5inflate?5stream?5c@
CONST	SEGMENT
??_C@_0CH@CPOLIEKA@internal?5error?3?5inflate?5stream?5c@ DB 'internal er'
	DB	'ror: inflate stream corrupt', 00H		; `string'
CONST	ENDS
;	COMDAT ??_C@_0BH@CFIIDOJD@unexpected?5end?5of?5file?$AA@
CONST	SEGMENT
??_C@_0BH@CFIIDOJD@unexpected?5end?5of?5file?$AA@ DB 'unexpected end of f'
	DB	'ile', 00H					; `string'
CONST	ENDS
;	COMDAT ??_C@_0BJ@BLBBCOMO@unknown?5header?5flags?5set?$AA@
CONST	SEGMENT
??_C@_0BJ@BLBBCOMO@unknown?5header?5flags?5set?$AA@ DB 'unknown header fl'
	DB	'ags set', 00H				; `string'
CONST	ENDS
;	COMDAT ??_C@_0BL@IHKGDAEE@unknown?5compression?5method?$AA@
CONST	SEGMENT
??_C@_0BL@IHKGDAEE@unknown?5compression?5method?$AA@ DB 'unknown compress'
	DB	'ion method', 00H				; `string'
